(dp0
(S'Expr'
p1
I109
tp2
(lp3
(S'clk'
p4
S'token'
p5
S'63'
p6
S'13'
p7
tp8
as(g1
I148
tp9
(lp10
(S'start1'
p11
S'token'
p12
S'78'
p13
S'19'
p14
tp15
a(S'Width'
p16
I25
tp17
as(g16
I7
tp18
(lp19
(S'['
p20
g20
S'18'
p21
S'6'
p22
tp23
a(g1
I15
tp24
a(S':'
p25
g25
S'18'
p26
S'9'
p27
tp28
a(g1
I16
tp29
a(S']'
p30
g30
S'18'
p31
S'11'
p32
tp33
as(S'CurlyItem'
p34
I20
tp35
(lp36
(g1
I92
tp37
as(S'CurlyItems'
p38
I22
tp39
(lp40
(g34
I22
tp41
as(g1
I119
tp42
(lp43
(S'0'
p44
S'number'
p45
S'67'
p46
S'21'
p47
tp48
as(g16
I25
tp49
(lp50
(g20
g20
S'78'
p51
S'20'
p52
tp53
a(g1
I146
tp54
a(g25
g25
S'78'
p55
S'23'
p56
tp57
a(g1
I147
tp58
a(g30
g30
S'78'
p59
S'25'
p60
tp61
as(S'Header_list'
p62
I1
tp63
(lp64
(S'Header_item'
p65
I1
tp66
as(S'Connection'
p67
I21
tp68
(lp69
(S'.'
p70
g70
S'77'
p71
g22
tp72
a(S'start0'
p73
S'token'
p74
S'77'
p75
S'12'
p76
tp77
a(S'('
p78
g78
S'77'
p79
S'13'
p80
tp81
a(g1
I145
tp82
a(S')'
p83
g83
S'77'
p84
S'26'
p85
tp86
as(g1
I89
tp87
(lp88
(S'15'
p89
S'number'
p90
S'56'
p91
S'33'
p92
tp93
as(g65
I3
tp94
(lp95
(S'ExtDir'
p96
I3
tp97
a(g16
I1
tp98
a(S'paddr'
p99
S'token'
p100
S'7'
p101
S'22'
p102
tp103
as(S'LSH'
p104
I13
tp105
(lp106
(S'addr1'
p107
S'token'
p108
S'44'
p109
S'17'
p110
tp111
as(g1
I42
tp112
(lp113
(S'jump0'
p114
S'token'
p115
S'39'
p116
S'34'
p117
tp118
as(S'Conns_list'
p119
I6
tp120
(lp121
(g119
I5
tp122
a(S','
p123
g123
S'52'
p124
S'26'
p125
tp126
a(g67
I6
tp127
as(g1
I12
tp128
(lp129
(g44
S'number'
p130
S'16'
p131
S'10'
p132
tp133
as(S'Definition'
p134
I3
tp135
(lp136
(S'IntDir'
p137
I3
tp138
a(g16
I7
tp139
a(S'Tokens_list'
p140
I5
tp141
a(S';'
p142
g142
S'18'
p143
S'33'
p144
tp145
as(S'Always'
p146
I1
tp147
(lp148
(S'always'
p149
S'always'
p150
S'26'
p151
g22
tp152
a(S'When'
p153
I1
tp154
a(S'Statement'
p155
I23
tp156
as(g137
I6
tp157
(lp158
(S'reg'
p159
S'reg'
p160
S'22'
p161
S'3'
p162
tp163
as(g1
I22
tp164
(lp165
(g44
S'number'
p166
S'22'
p167
g27
tp168
as(g1
I5
tp169
(lp170
(S'31'
p171
S'number'
p172
S'11'
p173
S'14'
p174
tp175
as(g38
I15
tp176
(lp177
(g34
I15
tp178
as(g1
I120
tp179
(lp180
(S'psize'
p181
S'token'
p182
S'67'
p183
S'17'
p184
tp185
a(g16
I16
tp186
as(g16
I18
tp187
(lp188
(g20
g20
S'71'
p189
S'22'
p190
tp191
a(g1
I125
tp192
a(g25
g25
S'71'
p193
S'25'
p194
tp195
a(g1
I126
tp196
a(g30
g30
S'71'
p197
S'27'
p198
tp199
as(g96
I5
tp200
(lp201
(S'input'
p202
S'input'
p203
g27
S'10'
p204
tp205
as(g67
I12
tp206
(lp207
(g70
g70
S'67'
p208
g22
tp209
a(S'psize'
p210
S'token'
p211
S'67'
p212
S'11'
p213
tp214
a(g78
g78
S'67'
p215
S'12'
p216
tp217
a(g1
I120
tp218
a(g83
g83
S'67'
p219
S'23'
p220
tp221
as(g1
I66
tp222
(lp223
(S'CurlyList'
p224
I3
tp225
as(S'Hparams'
p226
I1
tp227
(lp228
s(g155
I23
tp229
(lp230
(S'begin'
p231
S'begin'
p232
S'26'
p233
S'44'
p234
tp235
a(S'Statements'
p236
I16
tp237
a(S'end'
p238
S'end'
p239
S'48'
p240
g162
tp241
as(g119
I1
tp242
(lp243
(g67
I1
tp244
as(g1
I53
tp245
(lp246
(S'addr0'
p247
S'token'
p248
S'50'
p249
S'24'
p250
tp251
as(g137
I9
tp252
(lp253
(S'wire'
p254
S'wire'
p255
S'58'
p256
S'4'
p257
tp258
as(g134
I4
tp259
(lp260
(g137
I4
tp261
a(g16
I8
tp262
a(g140
I8
tp263
a(g142
g142
S'19'
p264
S'30'
p265
tp266
as(g155
I9
tp267
(lp268
(g104
I8
tp269
a(S'<='
p270
S'sm_eq'
p271
S'37'
p272
S'20'
p273
tp274
a(g1
I39
tp275
a(g142
g142
S'37'
p276
S'28'
p277
tp278
as(S'Instance'
p279
I3
tp280
(lp281
(S'sintab'
p282
S'token'
p283
S'52'
p284
g22
tp285
a(S'sin2'
p286
S'token'
p287
S'52'
p288
S'12'
p289
tp290
a(g78
g78
S'52'
p291
S'13'
p292
tp293
a(g119
I6
tp294
a(g83
g83
S'52'
p295
S'37'
p296
tp297
a(g142
g142
S'52'
p298
S'38'
p299
tp300
as(g1
I31
tp301
(lp302
(g44
S'number'
p303
S'28'
p304
S'16'
p305
tp306
as(g140
I3
tp307
(lp308
(S'start2'
p309
S'token'
p310
S'18'
p311
S'32'
p312
tp313
as(g1
I134
tp314
(lp315
(S'10'
p316
S'number'
p317
S'74'
p318
S'20'
p319
tp320
as(g38
I4
tp321
(lp322
(g38
I3
tp323
a(g123
g123
S'54'
p324
S'37'
p325
tp326
a(g34
I4
tp327
as(g1
I97
tp328
(lp329
(g224
I17
tp330
as(S'BusBit'
p331
I6
tp332
(lp333
(g20
g20
S'56'
p334
S'31'
p335
tp336
a(g1
I89
tp337
a(g30
g30
S'56'
p338
S'34'
p339
tp340
as(g16
I11
tp341
(lp342
(g20
g20
S'54'
p343
g22
tp344
a(g1
I59
tp345
a(g25
g25
S'54'
p346
g27
tp347
a(g1
I60
tp348
a(g30
g30
S'54'
p349
S'11'
p350
tp351
as(g67
I7
tp352
(lp353
(g70
g70
S'63'
p354
g22
tp355
a(S'clk'
p356
S'token'
p357
S'63'
p358
g27
tp359
a(g78
g78
S'63'
p360
S'10'
p361
tp362
a(g1
I109
tp363
a(g83
g83
S'63'
p364
S'14'
p365
tp366
as(g1
I75
tp367
(lp368
(S'15'
p369
S'number'
p370
S'55'
p371
S'33'
p372
tp373
as(S'MainItem'
p374
I1
tp375
(lp376
(S'Module'
p377
I1
tp378
as(g224
I4
tp379
(lp380
(S'{'
p381
g381
S'54'
p382
S'48'
p383
tp384
a(g38
I5
tp385
a(S'}'
p386
g386
S'54'
p387
S'58'
p388
tp389
as(g119
I8
tp390
(lp391
(g119
I7
tp392
a(g123
g123
S'63'
p393
S'16'
p394
tp395
a(g67
I8
tp396
as(g104
I1
tp397
(lp398
(S'addr0'
p399
S'token'
p400
S'28'
p401
S'13'
p402
tp403
as(g1
I62
tp404
(lp405
(S'15'
p406
S'number'
p407
S'54'
p408
S'33'
p409
tp410
as(S'Module_stuffs'
p411
I7
tp412
(lp413
(S'Mstuff'
p414
I10
tp415
a(g411
I6
tp416
as(g279
I4
tp417
(lp418
(S'regfile'
p419
S'token'
p420
S'62'
p421
g101
tp422
a(S'regfile'
p423
S'token'
p424
S'62'
p425
S'15'
p426
tp427
a(g78
g78
S'62'
p428
S'17'
p429
tp430
a(g119
I23
tp431
a(g83
g83
S'80'
p432
S'1'
p433
tp434
a(g142
g142
S'80'
p435
S'2'
p436
tp437
as(g236
I7
tp438
(lp439
(g236
I6
tp440
a(g155
I8
tp441
as(g140
I10
tp442
(lp443
(S'sin1'
p444
S'token'
p445
S'21'
p446
S'21'
p447
tp448
a(g123
g123
S'21'
p449
S'22'
p450
tp451
a(g140
I9
tp452
as(g1
I143
tp453
(lp454
(S'10'
p455
S'number'
p456
S'77'
p457
S'22'
p458
tp459
as(g414
I1
tp460
(lp461
(g134
I1
tp462
as(g1
I106
tp463
(lp464
(S'total'
p465
S'token'
p466
S'58'
p467
S'31'
p468
tp469
a(g16
I13
tp470
as(g1
I145
tp471
(lp472
(S'start0'
p473
S'token'
p474
S'77'
p475
S'19'
p476
tp477
a(g16
I24
tp478
as(g16
I12
tp479
(lp480
(g20
g20
S'58'
p481
g22
tp482
a(g1
I102
tp483
a(g25
g25
S'58'
p484
g27
tp485
a(g1
I103
tp486
a(g30
g30
S'58'
p487
S'11'
p488
tp489
as(g34
I9
tp490
(lp491
(g1
I76
tp492
as(g38
I19
tp493
(lp494
(g34
I19
tp495
as(g1
I76
tp496
(lp497
(S'sin1'
p498
S'token'
p499
S'55'
p500
S'30'
p501
tp502
a(g331
I4
tp503
as(g153
I1
tp504
(lp505
(S'@'
p506
g506
S'26'
p507
S'8'
p508
tp509
a(g78
g78
S'26'
p510
g27
tp511
a(S'When_items'
p512
I2
tp513
a(g83
g83
S'26'
p514
S'38'
p515
tp516
as(g414
I15
tp517
(lp518
(g279
I4
tp519
as(g96
I9
tp520
(lp521
(S'output'
p522
S'output'
p523
S'13'
p524
S'11'
p525
tp526
as(S'When_item'
p527
I2
tp528
(lp529
(S'negedge'
p530
S'negedge'
p531
S'26'
p532
S'31'
p533
tp534
a(g1
I28
tp535
as(g1
I86
tp536
(lp537
(g1
I79
tp538
a(S'*'
p539
g539
S'55'
p540
S'43'
p541
tp542
a(g1
I85
tp543
as(g224
I17
tp544
(lp545
(g381
g381
S'56'
p546
S'45'
p547
tp548
a(g38
I22
tp549
a(g386
g386
S'56'
p550
S'59'
p551
tp552
as(g65
I6
tp553
(lp554
(g96
I6
tp555
a(S'pwrite'
p556
S'token'
p557
S'10'
p558
S'17'
p559
tp560
as(g119
I19
tp561
(lp562
(g119
I18
tp563
a(g123
g123
S'75'
p564
S'5'
p565
tp566
a(g67
I19
tp567
as(g104
I8
tp568
(lp569
(S'addr2'
p570
S'token'
p571
S'37'
p572
S'17'
p573
tp574
as(g1
I39
tp575
(lp576
(S'start2'
p577
S'token'
p578
S'37'
p579
S'27'
p580
tp581
as(g411
I12
tp582
(lp583
(g414
I5
tp584
a(g411
I11
tp585
as(g236
I14
tp586
(lp587
(g236
I13
tp588
a(g155
I17
tp589
as(g140
I13
tp590
(lp591
(S'addr1'
p592
S'token'
p593
S'22'
p594
S'22'
p595
tp596
a(g123
g123
S'22'
p597
S'23'
p598
tp599
a(g140
I12
tp600
as(g134
I8
tp601
(lp602
(g137
I8
tp603
a(g16
I11
tp604
a(g140
I16
tp605
a(S'='
p606
g606
S'54'
p607
S'19'
p608
tp609
a(g1
I101
tp610
a(g142
g142
S'57'
p611
S'21'
p612
tp613
as(g414
I6
tp614
(lp615
(g134
I6
tp616
as(g1
I19
tp617
(lp618
(S'15'
p619
S'number'
p620
S'21'
p621
g508
tp622
as(g16
I5
tp623
(lp624
(g20
g20
S'13'
p625
S'13'
p626
tp627
a(g1
I9
tp628
a(g25
g25
S'13'
p629
S'16'
p630
tp631
a(g1
I10
tp632
a(g30
g30
S'13'
p633
S'18'
p634
tp635
as(g34
I22
tp636
(lp637
(g1
I94
tp638
a(g224
I16
tp639
as(g38
I8
tp640
(lp641
(g38
I7
tp642
a(g123
g123
S'54'
p643
S'60'
p644
tp645
a(g34
I8
tp646
as(g1
I117
tp647
(lp648
(S'psel'
p649
S'token'
p650
S'66'
p651
S'15'
p652
tp653
as(g67
I19
tp654
(lp655
(g70
g70
S'75'
p656
g22
tp657
a(S'jump1'
p658
S'token'
p659
S'75'
p660
S'11'
p661
tp662
a(g78
g78
S'75'
p663
S'12'
p664
tp665
a(g1
I139
tp666
a(g83
g83
S'75'
p667
S'24'
p668
tp669
as(g1
I95
tp670
(lp671
(S'15'
p672
S'number'
p673
S'56'
p674
S'56'
p675
tp676
as(g1
I40
tp677
(lp678
(S'running'
p679
S'token'
p680
S'38'
p681
S'28'
p682
tp683
as(g155
I18
tp684
(lp685
(S'begin'
p686
S'begin'
p687
S'42'
p688
S'22'
p689
tp690
a(g236
I14
tp691
a(S'end'
p692
S'end'
p693
S'46'
p694
S'11'
p695
tp696
as(g119
I4
tp697
(lp698
(g119
I3
tp699
a(g123
g123
S'51'
p700
S'26'
p701
tp702
a(g67
I4
tp703
as(g1
I50
tp704
(lp705
(g44
S'number'
p706
S'43'
p707
S'20'
p708
tp709
as(g134
I1
tp710
(lp711
(g137
I1
tp712
a(g16
I6
tp713
a(g140
I1
tp714
a(g142
g142
S'16'
p715
S'20'
p716
tp717
as(g137
I4
tp718
(lp719
(S'wire'
p720
S'wire'
p721
S'19'
p722
g257
tp723
as(g1
I20
tp724
(lp725
(g44
S'number'
p726
S'21'
p727
S'10'
p728
tp729
as(g1
I131
tp730
(lp731
(S'15'
p732
S'number'
p733
S'73'
p734
S'20'
p735
tp736
as(g38
I1
tp737
(lp738
(g34
I1
tp739
as(g1
I126
tp740
(lp741
(g44
S'number'
p742
S'71'
p743
S'26'
p744
tp745
as(g16
I16
tp746
(lp747
(g20
g20
S'67'
p748
S'18'
p749
tp750
a(g1
I118
tp751
a(g25
g25
S'67'
p752
S'20'
p753
tp754
a(g1
I119
tp755
a(g30
g30
S'67'
p756
S'22'
p757
tp758
as(g34
I5
tp759
(lp760
(g1
I69
tp761
as(g96
I7
tp762
(lp763
(S'input'
p764
S'input'
p765
S'11'
p766
S'10'
p767
tp768
as(g236
I6
tp769
(lp770
(g155
I7
tp771
as(g1
I64
tp772
(lp773
(g224
I2
tp774
as(g224
I3
tp775
(lp776
(g381
g381
S'54'
p777
S'22'
p778
tp779
a(g38
I4
tp780
a(g386
g386
S'54'
p781
S'42'
p782
tp783
as(g414
I13
tp784
(lp785
(g134
I9
tp786
as(g62
I8
tp787
(lp788
(g62
I7
tp789
a(g123
g123
S'12'
p790
g565
tp791
a(g65
I8
tp792
as(g67
I10
tp793
(lp794
(g70
g70
S'65'
p795
g22
tp796
a(S'prdata'
p797
S'token'
p798
S'65'
p799
S'12'
p800
tp801
a(g78
g78
S'65'
p802
S'13'
p803
tp804
a(g1
I116
tp805
a(g83
g83
S'65'
p806
S'26'
p807
tp808
as(g155
I21
tp809
(lp810
(S'begin'
p811
S'begin'
p812
S'32'
p813
S'18'
p814
tp815
a(g236
I15
tp816
a(S'end'
p817
S'end'
p818
S'47'
p819
g101
tp820
as(g119
I15
tp821
(lp822
(g119
I14
tp823
a(g123
g123
S'71'
p824
g565
tp825
a(g67
I15
tp826
as(g1
I59
tp827
(lp828
(S'31'
p829
S'number'
p830
S'54'
p831
g508
tp832
as(g153
I2
tp833
(lp834
(g506
g506
S'59'
p835
g508
tp836
a(g78
g78
S'59'
p837
g27
tp838
a(g512
I3
tp839
a(g83
g83
S'59'
p840
S'21'
p841
tp842
as(g155
I15
tp843
(lp844
(g104
I12
tp845
a(S'<='
p846
S'sm_eq'
p847
S'43'
p848
S'19'
p849
tp850
a(g1
I50
tp851
a(g142
g142
S'43'
p852
S'21'
p853
tp854
as(g279
I1
tp855
(lp856
(S'sintab'
p857
S'token'
p858
S'50'
p859
g22
tp860
a(S'sin0'
p861
S'token'
p862
S'50'
p863
S'12'
p864
tp865
a(g78
g78
S'50'
p866
S'13'
p867
tp868
a(g119
I2
tp869
a(g83
g83
S'50'
p870
S'37'
p871
tp872
a(g142
g142
S'50'
p873
S'38'
p874
tp875
as(g1
I29
tp876
(lp877
(S'rst_n'
p878
S'token'
p879
S'27'
p880
S'14'
p881
tp882
as(g140
I1
tp883
(lp884
(S'enables'
p885
S'token'
p886
S'16'
p887
S'19'
p888
tp889
as(g512
I2
tp890
(lp891
(g512
I1
tp892
a(S'Or_coma'
p893
I1
tp894
a(g527
I2
tp895
as(g38
I6
tp896
(lp897
(g34
I6
tp898
as(g1
I103
tp899
(lp900
(g44
S'number'
p901
S'58'
p902
S'10'
p903
tp904
as(g331
I4
tp905
(lp906
(g20
g20
S'55'
p907
S'31'
p908
tp909
a(g1
I75
tp910
a(g30
g30
S'55'
p911
S'34'
p912
tp913
as(g16
I9
tp914
(lp915
(g20
g20
S'21'
p916
g22
tp917
a(g1
I19
tp918
a(g25
g25
S'21'
p919
g27
tp920
a(g1
I20
tp921
a(g30
g30
S'21'
p922
S'11'
p923
tp924
as(g34
I2
tp925
(lp926
(g1
I61
tp927
a(g224
I1
tp928
as(g67
I5
tp929
(lp930
(g70
g70
S'52'
p931
S'14'
p932
tp933
a(S'addr'
p934
S'token'
p935
S'52'
p936
S'18'
p937
tp938
a(g78
g78
S'52'
p939
S'19'
p940
tp941
a(g1
I57
tp942
a(g83
g83
S'52'
p943
S'25'
p944
tp945
as(g1
I73
tp946
(lp947
(g1
I66
tp948
a(g539
g539
S'54'
p949
S'43'
p950
tp951
a(g1
I72
tp952
as(g224
I10
tp953
(lp954
(g381
g381
S'55'
p955
S'48'
p956
tp957
a(g38
I13
tp958
a(g386
g386
S'55'
p959
S'58'
p960
tp961
as(g1
I83
tp962
(lp963
(g224
I11
tp964
as(g119
I22
tp965
(lp966
(g119
I21
tp967
a(g123
g123
S'78'
p968
g565
tp969
a(g67
I22
tp970
as(g104
I7
tp971
(lp972
(S'addr1'
p973
S'token'
p974
S'36'
p975
S'17'
p976
tp977
as(g1
I60
tp978
(lp979
(g44
S'number'
p980
S'54'
p981
S'10'
p982
tp983
as(g411
I9
tp984
(lp985
(g414
I8
tp986
a(g411
I8
tp987
as(g155
I6
tp988
(lp989
(g104
I5
tp990
a(S'<='
p991
S'sm_eq'
p992
S'33'
p993
S'18'
p994
tp995
a(g1
I35
tp996
a(g142
g142
S'33'
p997
S'24'
p998
tp999
as(g1
I14
tp1000
(lp1001
(S'enables'
p1002
S'token'
p1003
S'17'
p1004
S'19'
p1005
tp1006
a(g331
I1
tp1007
as(g1
I6
tp1008
(lp1009
(g44
S'number'
p1010
S'11'
p1011
S'16'
p1012
tp1013
as(g140
I8
tp1014
(lp1015
(S'jump0'
p1016
S'token'
p1017
S'19'
p1018
S'17'
p1019
tp1020
a(g123
g123
S'19'
p1021
S'18'
p1022
tp1023
a(g140
I7
tp1024
as(g1
I141
tp1025
(lp1026
(g44
S'number'
p1027
S'76'
p1028
S'22'
p1029
tp1030
as(g414
I3
tp1031
(lp1032
(g134
I3
tp1033
as(g1
I104
tp1034
(lp1035
(S'31'
p1036
S'number'
p1037
S'58'
p1038
S'34'
p1039
tp1040
as(g1
I151
tp1041
(lp1042
(S'start2'
p1043
S'token'
p1044
S'79'
p1045
S'19'
p1046
tp1047
a(g16
I26
tp1048
as(g16
I2
tp1049
(lp1050
(g20
g20
g508
S'12'
p1051
tp1052
a(g1
I3
tp1053
a(g25
g25
g508
S'14'
p1054
tp1055
a(g1
I4
tp1056
a(g30
g30
g508
S'16'
p1057
tp1058
as(g34
I11
tp1059
(lp1060
(g1
I77
tp1061
as(g38
I21
tp1062
(lp1063
(g34
I21
tp1064
as(g1
I114
tp1065
(lp1066
(S'31'
p1067
S'number'
p1068
S'65'
p1069
S'22'
p1070
tp1071
as(g224
I13
tp1072
(lp1073
(g381
g381
S'56'
p1074
S'26'
p1075
tp1076
a(g38
I17
tp1077
a(g386
g386
S'56'
p1078
S'35'
p1079
tp1080
as(g62
I4
tp1081
(lp1082
(g62
I3
tp1083
a(g123
g123
g508
g565
tp1084
a(g65
I4
tp1085
as(g236
I4
tp1086
(lp1087
(g236
I3
tp1088
a(g155
I4
tp1089
as(g1
I84
tp1090
(lp1091
(S'gain1'
p1092
S'token'
p1093
S'55'
p1094
S'65'
p1095
tp1096
as(g119
I17
tp1097
(lp1098
(g119
I16
tp1099
a(g123
g123
S'73'
p1100
g565
tp1101
a(g67
I17
tp1102
as(g104
I14
tp1103
(lp1104
(S'addr2'
p1105
S'token'
p1106
S'45'
p1107
S'17'
p1108
tp1109
as(g1
I37
tp1110
(lp1111
(S'start0'
p1112
S'token'
p1113
S'35'
p1114
S'27'
p1115
tp1116
as(g411
I14
tp1117
(lp1118
(g414
I3
tp1119
a(g411
I13
tp1120
as(g1
I15
tp1121
(lp1122
(S'10'
p1123
S'number'
p1124
S'18'
p1125
g508
tp1126
as(g137
I3
tp1127
(lp1128
(S'wire'
p1129
S'wire'
p1130
S'18'
p1131
g257
tp1132
as(g1
I17
tp1133
(lp1134
(S'10'
p1135
S'number'
p1136
S'19'
p1137
g508
tp1138
as(g34
I16
tp1139
(lp1140
(g1
I84
tp1141
as(g38
I10
tp1142
(lp1143
(g34
I10
tp1144
as(g62
I7
tp1145
(lp1146
(g62
I6
tp1147
a(g123
g123
S'11'
p1148
g565
tp1149
a(g65
I7
tp1150
as(g96
I2
tp1151
(lp1152
(S'input'
p1153
S'input'
p1154
g22
S'19'
p1155
tp1156
as(g67
I17
tp1157
(lp1158
(g70
g70
S'73'
p1159
g22
tp1160
a(S'gain1'
p1161
S'token'
p1162
S'73'
p1163
S'11'
p1164
tp1165
a(g78
g78
S'73'
p1166
S'12'
p1167
tp1168
a(g1
I133
tp1169
a(g83
g83
S'73'
p1170
S'24'
p1171
tp1172
as(g1
I93
tp1173
(lp1174
(g224
I15
tp1175
as(g1
I46
tp1176
(lp1177
(g1
I44
tp1178
a(S'+'
p1179
g1179
S'40'
p1180
S'28'
p1181
tp1182
a(g1
I45
tp1183
as(g155
I16
tp1184
(lp1185
(g104
I13
tp1186
a(S'<='
p1187
S'sm_eq'
p1188
S'44'
p1189
S'19'
p1190
tp1191
a(g1
I51
tp1192
a(g142
g142
S'44'
p1193
S'21'
p1194
tp1195
as(g119
I2
tp1196
(lp1197
(g119
I1
tp1198
a(g123
g123
S'50'
p1199
S'26'
p1200
tp1201
a(g67
I2
tp1202
as(g1
I48
tp1203
(lp1204
(S'jump2'
p1205
S'token'
p1206
S'41'
p1207
S'34'
p1208
tp1209
as(g134
I7
tp1210
(lp1211
(g137
I7
tp1212
a(g140
I15
tp1213
a(g606
g606
S'24'
p1214
S'12'
p1215
tp1216
a(g1
I26
tp1217
a(g142
g142
S'24'
p1218
S'30'
p1219
tp1220
as(g155
I10
tp1221
(lp1222
(S'begin'
p1223
S'begin'
p1224
S'34'
p1225
S'24'
p1226
tp1227
a(g236
I8
tp1228
a(S'end'
p1229
S'end'
p1230
S'38'
p1231
S'11'
p1232
tp1233
as(g1
I8
tp1234
(lp1235
(g44
S'number'
p1236
S'12'
p1237
S'17'
p1238
tp1239
as(g1
I26
tp1240
(lp1241
(g1
I23
tp1242
a(S'&&'
p1243
S'and_and'
p1244
S'24'
p1245
S'20'
p1246
tp1247
a(g1
I25
tp1248
as(g1
I129
tp1249
(lp1250
(g44
S'number'
p1251
S'72'
p1252
S'22'
p1253
tp1254
as(g38
I3
tp1255
(lp1256
(g34
I3
tp1257
as(g1
I124
tp1258
(lp1259
(S'pwrite'
p1260
S'token'
p1261
S'69'
p1262
S'19'
p1263
tp1264
as(g16
I22
tp1265
(lp1266
(g20
g20
S'75'
p1267
S'18'
p1268
tp1269
a(g1
I137
tp1270
a(g25
g25
S'75'
p1271
S'21'
p1272
tp1273
a(g1
I138
tp1274
a(g30
g30
S'75'
p1275
S'23'
p1276
tp1277
as(g34
I7
tp1278
(lp1279
(g1
I70
tp1280
as(g67
I8
tp1281
(lp1282
(g70
g70
S'63'
p1283
S'17'
p1284
tp1285
a(S'rst_n'
p1286
S'token'
p1287
S'63'
p1288
S'22'
p1289
tp1290
a(g78
g78
S'63'
p1291
S'23'
p1292
tp1293
a(g1
I110
tp1294
a(g83
g83
S'63'
p1295
S'29'
p1296
tp1297
as(g1
I70
tp1298
(lp1299
(g224
I5
tp1300
as(g224
I1
tp1301
(lp1302
(g381
g381
S'54'
p1303
S'26'
p1304
tp1305
a(g38
I1
tp1306
a(g386
g386
S'54'
p1307
S'35'
p1308
tp1309
as(g137
I2
tp1310
(lp1311
(S'wire'
p1312
S'wire'
p1313
S'17'
p1314
g257
tp1315
as(g119
I13
tp1316
(lp1317
(g119
I12
tp1318
a(g123
g123
S'68'
p1319
g565
tp1320
a(g67
I13
tp1321
as(g104
I2
tp1322
(lp1323
(S'addr1'
p1324
S'token'
p1325
S'29'
p1326
S'13'
p1327
tp1328
as(g1
I57
tp1329
(lp1330
(S'addr2'
p1331
S'token'
p1332
S'52'
p1333
S'24'
p1334
tp1335
as(g411
I2
tp1336
(lp1337
(g414
I15
tp1338
a(g411
I1
tp1339
as(g1
I132
tp1340
(lp1341
(g44
S'number'
p1342
S'73'
p1343
S'22'
p1344
tp1345
as(g155
I13
tp1346
(lp1347
(g104
I11
tp1348
a(S'<='
p1349
S'sm_eq'
p1350
S'41'
p1351
S'20'
p1352
tp1353
a(g1
I49
tp1354
a(g142
g142
S'41'
p1355
S'35'
p1356
tp1357
as(g1
I3
tp1358
(lp1359
(g433
S'number'
p1360
g508
S'13'
p1361
tp1362
as(g140
I7
tp1363
(lp1364
(S'jump1'
p1365
S'token'
p1366
S'19'
p1367
S'23'
p1368
tp1369
a(g123
g123
S'19'
p1370
S'24'
p1371
tp1372
a(g140
I6
tp1373
as(g1
I138
tp1374
(lp1375
(g44
S'number'
p1376
S'75'
p1377
S'22'
p1378
tp1379
as(g1
I101
tp1380
(lp1381
(g1
I87
tp1382
a(g1179
g1179
S'56'
p1383
S'21'
p1384
tp1385
a(g1
I100
tp1386
as(g331
I2
tp1387
(lp1388
(g20
g20
S'54'
p1389
S'31'
p1390
tp1391
a(g1
I62
tp1392
a(g30
g30
S'54'
p1393
S'34'
p1394
tp1395
as(g893
I1
tp1396
(lp1397
(S'or'
p1398
S'or'
p1399
S'26'
p1400
S'23'
p1401
tp1402
as(g16
I15
tp1403
(lp1404
(g20
g20
S'65'
p1405
S'20'
p1406
tp1407
a(g1
I114
tp1408
a(g25
g25
S'65'
p1409
S'23'
p1410
tp1411
a(g1
I115
tp1412
a(g30
g30
S'65'
p1413
S'25'
p1414
tp1415
as(g34
I12
tp1416
(lp1417
(g1
I78
tp1418
as(g67
I3
tp1419
(lp1420
(g70
g70
S'51'
p1421
S'14'
p1422
tp1423
a(S'addr'
p1424
S'token'
p1425
S'51'
p1426
S'18'
p1427
tp1428
a(g78
g78
S'51'
p1429
S'19'
p1430
tp1431
a(g1
I55
tp1432
a(g83
g83
S'51'
p1433
S'25'
p1434
tp1435
as(g1
I79
tp1436
(lp1437
(g224
I9
tp1438
as(g224
I8
tp1439
(lp1440
(g381
g381
S'55'
p1441
S'23'
p1442
tp1443
a(g38
I10
tp1444
a(g386
g386
S'55'
p1445
S'36'
p1446
tp1447
as(g527
I1
tp1448
(lp1449
(S'posedge'
p1450
S'posedge'
p1451
S'26'
p1452
S'16'
p1453
tp1454
a(g1
I27
tp1455
as(g1
I81
tp1456
(lp1457
(S'15'
p1458
S'number'
p1459
S'55'
p1460
S'56'
p1461
tp1462
as(g224
I18
tp1463
(lp1464
(g381
g381
S'56'
p1465
S'44'
p1466
tp1467
a(g38
I24
tp1468
a(g386
g386
S'56'
p1469
S'66'
p1470
tp1471
as(g119
I20
tp1472
(lp1473
(g119
I19
tp1474
a(g123
g123
S'76'
p1475
g565
tp1476
a(g67
I20
tp1477
as(g104
I5
tp1478
(lp1479
(S'running'
p1480
S'token'
p1481
S'33'
p1482
S'15'
p1483
tp1484
as(g1
I34
tp1485
(lp1486
(g44
S'number'
p1487
S'31'
p1488
S'20'
p1489
tp1490
as(g411
I11
tp1491
(lp1492
(g414
I6
tp1493
a(g411
I10
tp1494
as(g155
I4
tp1495
(lp1496
(g104
I4
tp1497
a(S'<='
p1498
S'sm_eq'
p1499
S'31'
p1500
S'18'
p1501
tp1502
a(g1
I34
tp1503
a(g142
g142
S'31'
p1504
S'21'
p1505
tp1506
as(g236
I3
tp1507
(lp1508
(g236
I2
tp1509
a(g155
I3
tp1510
as(g140
I14
tp1511
(lp1512
(S'addr0'
p1513
S'token'
p1514
S'22'
p1515
S'16'
p1516
tp1517
a(g123
g123
S'22'
p1518
S'17'
p1519
tp1520
a(g140
I13
tp1521
as(g414
I5
tp1522
(lp1523
(g134
I5
tp1524
as(g236
I13
tp1525
(lp1526
(g236
I12
tp1527
a(g155
I16
tp1528
as(g1
I110
tp1529
(lp1530
(S'rst_n'
p1531
S'token'
p1532
S'63'
p1533
S'28'
p1534
tp1535
as(g1
I149
tp1536
(lp1537
(S'10'
p1538
S'number'
p1539
S'79'
p1540
S'22'
p1541
tp1542
as(g34
I21
tp1543
(lp1544
(g1
I96
tp1545
as(g38
I23
tp1546
(lp1547
(g34
I23
tp1548
as(g1
I112
tp1549
(lp1550
(g44
S'number'
p1551
S'64'
p1552
S'21'
p1553
tp1554
as(g16
I26
tp1555
(lp1556
(g20
g20
S'79'
p1557
S'20'
p1558
tp1559
a(g1
I149
tp1560
a(g25
g25
S'79'
p1561
S'23'
p1562
tp1563
a(g1
I150
tp1564
a(g30
g30
S'79'
p1565
S'25'
p1566
tp1567
as(g62
I2
tp1568
(lp1569
(g62
I1
tp1570
a(g123
g123
g22
S'14'
p1571
tp1572
a(g65
I2
tp1573
as(g67
I20
tp1574
(lp1575
(g70
g70
S'76'
p1576
g22
tp1577
a(S'jump2'
p1578
S'token'
p1579
S'76'
p1580
S'11'
p1581
tp1582
a(g78
g78
S'76'
p1583
S'12'
p1584
tp1585
a(g1
I142
tp1586
a(g83
g83
S'76'
p1587
S'24'
p1588
tp1589
as(g1
I90
tp1590
(lp1591
(S'sin2'
p1592
S'token'
p1593
S'56'
p1594
S'30'
p1595
tp1596
a(g331
I6
tp1597
as(g65
I2
tp1598
(lp1599
(g96
I2
tp1600
a(S'rst_n'
p1601
S'token'
p1602
g22
S'25'
p1603
tp1604
as(g236
I11
tp1605
(lp1606
(g236
I10
tp1607
a(g155
I13
tp1608
as(g104
I12
tp1609
(lp1610
(S'addr0'
p1611
S'token'
p1612
S'43'
p1613
S'17'
p1614
tp1615
as(g1
I43
tp1616
(lp1617
(g1
I41
tp1618
a(g1179
g1179
S'39'
p1619
S'28'
p1620
tp1621
a(g1
I42
tp1622
as(g1
I13
tp1623
(lp1624
(g44
S'number'
p1625
S'17'
p1626
S'21'
p1627
tp1628
as(g140
I17
tp1629
(lp1630
(S'outmix_wire'
p1631
S'token'
p1632
S'58'
p1633
S'23'
p1634
tp1635
as(g67
I16
tp1636
(lp1637
(g70
g70
S'72'
p1638
g22
tp1639
a(S'gain0'
p1640
S'token'
p1641
S'72'
p1642
S'11'
p1643
tp1644
a(g78
g78
S'72'
p1645
S'12'
p1646
tp1647
a(g1
I130
tp1648
a(g83
g83
S'72'
p1649
S'24'
p1650
tp1651
as(g146
I2
tp1652
(lp1653
(S'always'
p1654
S'always'
p1655
S'59'
p1656
g22
tp1657
a(g153
I2
tp1658
a(g155
I24
tp1659
as(g137
I1
tp1660
(lp1661
(S'wire'
p1662
S'wire'
p1663
S'16'
p1664
g257
tp1665
as(g236
I16
tp1666
(lp1667
(g155
I22
tp1668
as(g34
I18
tp1669
(lp1670
(g1
I88
tp1671
a(g224
I13
tp1672
as(g38
I12
tp1673
(lp1674
(g38
I11
tp1675
a(g123
g123
S'55'
p1676
S'37'
p1677
tp1678
a(g34
I12
tp1679
as(g1
I121
tp1680
(lp1681
(S'31'
p1682
S'number'
p1683
S'68'
p1684
S'22'
p1685
tp1686
as(g16
I19
tp1687
(lp1688
(g20
g20
S'72'
p1689
S'18'
p1690
tp1691
a(g1
I128
tp1692
a(g25
g25
S'72'
p1693
S'21'
p1694
tp1695
a(g1
I129
tp1696
a(g30
g30
S'72'
p1697
S'23'
p1698
tp1699
as(g96
I4
tp1700
(lp1701
(S'input'
p1702
S'input'
p1703
g508
S'10'
p1704
tp1705
as(g67
I15
tp1706
(lp1707
(g70
g70
S'71'
p1708
g22
tp1709
a(S'enables'
p1710
S'token'
p1711
S'71'
p1712
S'13'
p1713
tp1714
a(g78
g78
S'71'
p1715
S'14'
p1716
tp1717
a(g1
I127
tp1718
a(g83
g83
S'71'
p1719
S'28'
p1720
tp1721
as(g1
I67
tp1722
(lp1723
(S'16'
p1724
S'number'
p1725
S'54'
p1726
S'47'
p1727
tp1728
as(g65
I9
tp1729
(lp1730
(g96
I9
tp1731
a(g16
I5
tp1732
a(S'outmix'
p1733
S'token'
p1734
S'13'
p1735
S'25'
p1736
tp1737
as(g1
I44
tp1738
(lp1739
(S'addr1'
p1740
S'token'
p1741
S'40'
p1742
S'26'
p1743
tp1744
as(g155
I22
tp1745
(lp1746
(S'if'
p1747
S'if'
p1748
S'27'
p1749
g22
tp1750
a(g78
g78
S'27'
p1751
g508
tp1752
a(g1
I30
tp1753
a(g83
g83
S'27'
p1754
S'15'
p1755
tp1756
a(g155
I5
tp1757
a(S'else'
p1758
S'else'
p1759
S'32'
p1760
S'12'
p1761
tp1762
a(g155
I21
tp1763
as(g1
I54
tp1764
(lp1765
(S'sin0'
p1766
S'token'
p1767
S'50'
p1768
S'35'
p1769
tp1770
as(g134
I5
tp1771
(lp1772
(g137
I5
tp1773
a(g16
I9
tp1774
a(g140
I11
tp1775
a(g142
g142
S'21'
p1776
S'27'
p1777
tp1778
as(g155
I8
tp1779
(lp1780
(g104
I7
tp1781
a(S'<='
p1782
S'sm_eq'
p1783
S'36'
p1784
S'20'
p1785
tp1786
a(g1
I38
tp1787
a(g142
g142
S'36'
p1788
S'28'
p1789
tp1790
as(g1
I24
tp1791
(lp1792
(S'running'
p1793
S'token'
p1794
S'24'
p1795
S'29'
p1796
tp1797
as(g140
I2
tp1798
(lp1799
(S'work'
p1800
S'token'
p1801
S'17'
p1802
g27
tp1803
as(g512
I1
tp1804
(lp1805
(g527
I1
tp1806
as(g1
I4
tp1807
(lp1808
(g44
S'number'
p1809
g508
S'15'
p1810
tp1811
as(g38
I5
tp1812
(lp1813
(g34
I5
tp1814
as(g1
I98
tp1815
(lp1816
(S'gain2'
p1817
S'token'
p1818
S'56'
p1819
S'65'
p1820
tp1821
as(g331
I7
tp1822
(lp1823
(g20
g20
S'56'
p1824
S'54'
p1825
tp1826
a(g1
I95
tp1827
a(g30
g30
S'56'
p1828
S'57'
p1829
tp1830
as(g16
I20
tp1831
(lp1832
(g20
g20
S'73'
p1833
S'18'
p1834
tp1835
a(g1
I131
tp1836
a(g25
g25
S'73'
p1837
S'21'
p1838
tp1839
a(g1
I132
tp1840
a(g30
g30
S'73'
p1841
S'23'
p1842
tp1843
as(g34
I1
tp1844
(lp1845
(g1
I63
tp1846
as(g377
I1
tp1847
(lp1848
(S'module'
p1849
S'module'
p1850
g565
g22
tp1851
a(S'generator'
p1852
S'token'
p1853
g565
S'16'
p1854
tp1855
a(g226
I1
tp1856
a(S'Header'
p1857
I1
tp1858
a(g411
I16
tp1859
a(S'endmodule'
p1860
S'endmodule'
p1861
S'85'
p1862
g27
tp1863
as(g67
I6
tp1864
(lp1865
(g70
g70
S'52'
p1866
S'27'
p1867
tp1868
a(S'out'
p1869
S'token'
p1870
S'52'
p1871
S'30'
p1872
tp1873
a(g78
g78
S'52'
p1874
S'31'
p1875
tp1876
a(g1
I58
tp1877
a(g83
g83
S'52'
p1878
S'36'
p1879
tp1880
as(g1
I68
tp1881
(lp1882
(S'15'
p1883
S'number'
p1884
S'54'
p1885
S'56'
p1886
tp1887
as(g224
I7
tp1888
(lp1889
(g381
g381
S'55'
p1890
S'26'
p1891
tp1892
a(g38
I9
tp1893
a(g386
g386
S'55'
p1894
S'35'
p1895
tp1896
as(g119
I11
tp1897
(lp1898
(g119
I10
tp1899
a(g123
g123
S'66'
p1900
g565
tp1901
a(g67
I11
tp1902
as(g1
I63
tp1903
(lp1904
(S'sin0'
p1905
S'token'
p1906
S'54'
p1907
S'30'
p1908
tp1909
a(g331
I2
tp1910
as(g411
I4
tp1911
(lp1912
(g414
I13
tp1913
a(g411
I3
tp1914
as(g155
I3
tp1915
(lp1916
(g104
I3
tp1917
a(S'<='
p1918
S'sm_eq'
p1919
S'30'
p1920
S'15'
p1921
tp1922
a(g1
I33
tp1923
a(g142
g142
S'30'
p1924
S'17'
p1925
tp1926
as(g1
I1
tp1927
(lp1928
(g565
S'number'
p1929
g101
S'13'
p1930
tp1931
as(g140
I5
tp1932
(lp1933
(S'start0'
p1934
S'token'
p1935
S'18'
p1936
S'18'
p1937
tp1938
a(g123
g123
S'18'
p1939
S'19'
p1940
tp1941
a(g140
I4
tp1942
as(g1
I136
tp1943
(lp1944
(S'jump0'
p1945
S'token'
p1946
S'74'
p1947
S'17'
p1948
tp1949
a(g16
I21
tp1950
as(g1
I107
tp1951
(lp1952
(S'clk'
p1953
S'token'
p1954
S'59'
p1955
S'20'
p1956
tp1957
as(g1
I146
tp1958
(lp1959
(S'10'
p1960
S'number'
p1961
S'78'
p1962
S'22'
p1963
tp1964
as(g16
I13
tp1965
(lp1966
(g20
g20
S'58'
p1967
S'32'
p1968
tp1969
a(g1
I104
tp1970
a(g25
g25
S'58'
p1971
S'35'
p1972
tp1973
a(g1
I105
tp1974
a(g30
g30
S'58'
p1975
S'38'
p1976
tp1977
as(g34
I14
tp1978
(lp1979
(g1
I80
tp1980
a(g224
I10
tp1981
as(g67
I1
tp1982
(lp1983
(g70
g70
S'50'
p1984
S'14'
p1985
tp1986
a(S'addr'
p1987
S'token'
p1988
S'50'
p1989
S'18'
p1990
tp1991
a(g78
g78
S'50'
p1992
S'19'
p1993
tp1994
a(g1
I53
tp1995
a(g83
g83
S'50'
p1996
S'25'
p1997
tp1998
as(g38
I16
tp1999
(lp2000
(g38
I15
tp2001
a(g123
g123
S'55'
p2002
S'60'
p2003
tp2004
a(g34
I16
tp2005
as(g1
I77
tp2006
(lp2007
(g224
I8
tp2008
as(g224
I14
tp2009
(lp2010
(g381
g381
S'56'
p2011
S'23'
p2012
tp2013
a(g38
I18
tp2014
a(g386
g386
S'56'
p2015
S'36'
p2016
tp2017
as(g96
I8
tp2018
(lp2019
(S'output'
p2020
S'output'
p2021
S'12'
p2022
S'11'
p2023
tp2024
as(g527
I3
tp2025
(lp2026
(S'posedge'
p2027
S'posedge'
p2028
S'59'
p2029
S'16'
p2030
tp2031
a(g1
I107
tp2032
as(g1
I87
tp2033
(lp2034
(g1
I73
tp2035
a(g1179
g1179
S'55'
p2036
S'21'
p2037
tp2038
a(g1
I86
tp2039
as(g224
I16
tp2040
(lp2041
(g381
g381
S'56'
p2042
S'48'
p2043
tp2044
a(g38
I21
tp2045
a(g386
g386
S'56'
p2046
S'58'
p2047
tp2048
as(g65
I5
tp2049
(lp2050
(g96
I5
tp2051
a(S'psel'
p2052
S'token'
p2053
g27
S'15'
p2054
tp2055
as(g119
I18
tp2056
(lp2057
(g119
I17
tp2058
a(g123
g123
S'74'
p2059
g565
tp2060
a(g67
I18
tp2061
as(g104
I11
tp2062
(lp2063
(S'addr2'
p2064
S'token'
p2065
S'41'
p2066
S'17'
p2067
tp2068
as(g1
I32
tp2069
(lp2070
(g44
S'number'
p2071
S'29'
p2072
S'16'
p2073
tp2074
as(g411
I13
tp2075
(lp2076
(g414
I4
tp2077
a(g411
I12
tp2078
as(g1
I10
tp2079
(lp2080
(g44
S'number'
p2081
S'13'
p2082
S'17'
p2083
tp2084
as(g140
I12
tp2085
(lp2086
(S'addr2'
p2087
S'token'
p2088
S'22'
p2089
S'28'
p2090
tp2091
as(S'Mains'
p2092
I1
tp2093
(lp2094
(g374
I1
tp2095
as(g134
I9
tp2096
(lp2097
(g137
I9
tp2098
a(g16
I12
tp2099
a(g140
I17
tp2100
a(g606
g606
S'58'
p2101
S'25'
p2102
tp2103
a(g1
I106
tp2104
a(g142
g142
S'58'
p2105
S'39'
p2106
tp2107
as(g414
I7
tp2108
(lp2109
(g134
I7
tp2110
as(g1
I108
tp2111
(lp2112
(S'outmix_wire'
p2113
S'token'
p2114
S'59'
p2115
S'43'
p2116
tp2117
as(g16
I6
tp2118
(lp2119
(g20
g20
S'16'
p2120
g22
tp2121
a(g1
I11
tp2122
a(g25
g25
S'16'
p2123
g27
tp2124
a(g1
I12
tp2125
a(g30
g30
S'16'
p2126
S'11'
p2127
tp2128
as(g34
I23
tp2129
(lp2130
(g1
I97
tp2131
as(g236
I1
tp2132
(lp2133
(g155
I1
tp2134
as(g38
I9
tp2135
(lp2136
(g34
I9
tp2137
as(g1
I118
tp2138
(lp2139
(g433
S'number'
p2140
S'67'
p2141
S'19'
p2142
tp2143
as(g16
I24
tp2144
(lp2145
(g20
g20
S'77'
p2146
S'20'
p2147
tp2148
a(g1
I143
tp2149
a(g25
g25
S'77'
p2150
S'23'
p2151
tp2152
a(g1
I144
tp2153
a(g30
g30
S'77'
p2154
S'25'
p2155
tp2156
as(g414
I14
tp2157
(lp2158
(g146
I2
tp2159
as(g67
I18
tp2160
(lp2161
(g70
g70
S'74'
p2162
g22
tp2163
a(S'jump0'
p2164
S'token'
p2165
S'74'
p2166
S'11'
p2167
tp2168
a(g78
g78
S'74'
p2169
S'12'
p2170
tp2171
a(g1
I136
tp2172
a(g83
g83
S'74'
p2173
S'24'
p2174
tp2175
as(g1
I88
tp2176
(lp2177
(S'16'
p2178
S'number'
p2179
S'56'
p2180
S'25'
p2181
tp2182
as(S'Main'
p2183
I1
tp2184
(lp2185
(g2092
I1
tp2186
as(g1
I41
tp2187
(lp2188
(S'addr0'
p2189
S'token'
p2190
S'39'
p2191
S'26'
p2192
tp2193
as(g119
I7
tp2194
(lp2195
(g67
I7
tp2196
as(g1
I51
tp2197
(lp2198
(g44
S'number'
p2199
S'44'
p2200
S'20'
p2201
tp2202
as(g137
I8
tp2203
(lp2204
(S'wire'
p2205
S'wire'
p2206
S'54'
p2207
g257
tp2208
as(g134
I2
tp2209
(lp2210
(g137
I2
tp2211
a(g140
I2
tp2212
a(g606
g606
S'17'
p2213
S'11'
p2214
tp2215
a(g1
I14
tp2216
a(g142
g142
S'17'
p2217
S'23'
p2218
tp2219
as(g137
I7
tp2220
(lp2221
(S'wire'
p2222
S'wire'
p2223
S'24'
p2224
g257
tp2225
as(g67
I22
tp2226
(lp2227
(g70
g70
S'78'
p2228
g22
tp2229
a(S'start1'
p2230
S'token'
p2231
S'78'
p2232
S'12'
p2233
tp2234
a(g78
g78
S'78'
p2235
S'13'
p2236
tp2237
a(g1
I148
tp2238
a(g83
g83
S'78'
p2239
S'26'
p2240
tp2241
as(g1
I21
tp2242
(lp2243
(S'10'
p2244
S'number'
p2245
S'22'
p2246
g101
tp2247
as(g38
I14
tp2248
(lp2249
(g34
I14
tp2250
as(g1
I127
tp2251
(lp2252
(S'enables'
p2253
S'token'
p2254
S'71'
p2255
S'21'
p2256
tp2257
a(g16
I18
tp2258
as(g16
I17
tp2259
(lp2260
(g20
g20
S'68'
p2261
S'20'
p2262
tp2263
a(g1
I121
tp2264
a(g25
g25
S'68'
p2265
S'23'
p2266
tp2267
a(g1
I122
tp2268
a(g30
g30
S'68'
p2269
S'25'
p2270
tp2271
as(g62
I9
tp2272
(lp2273
(g62
I8
tp2274
a(g123
g123
S'13'
p2275
g565
tp2276
a(g65
I9
tp2277
as(g67
I13
tp2278
(lp2279
(g70
g70
S'68'
p2280
g22
tp2281
a(S'pwdata'
p2282
S'token'
p2283
S'68'
p2284
S'12'
p2285
tp2286
a(g78
g78
S'68'
p2287
S'13'
p2288
tp2289
a(g1
I123
tp2290
a(g83
g83
S'68'
p2291
S'26'
p2292
tp2293
as(g1
I65
tp2294
(lp2295
(S'sin0'
p2296
S'token'
p2297
S'54'
p2298
S'41'
p2299
tp2300
as(g224
I2
tp2301
(lp2302
(g381
g381
S'54'
p2303
S'23'
p2304
tp2305
a(g38
I2
tp2306
a(g386
g386
S'54'
p2307
S'36'
p2308
tp2309
as(g155
I20
tp2310
(lp2311
(S'if'
p2312
S'if'
p2313
S'34'
p2314
S'10'
p2315
tp2316
a(g78
g78
S'34'
p2317
S'12'
p2318
tp2319
a(g1
I36
tp2320
a(g83
g83
S'34'
p2321
S'18'
p2322
tp2323
a(g155
I10
tp2324
a(S'else'
p2325
S'else'
p2326
S'38'
p2327
S'16'
p2328
tp2329
a(g155
I19
tp2330
as(g119
I14
tp2331
(lp2332
(g119
I13
tp2333
a(g123
g123
S'69'
p2334
g565
tp2335
a(g67
I14
tp2336
as(g1
I52
tp2337
(lp2338
(g44
S'number'
p2339
S'45'
p2340
S'20'
p2341
tp2342
as(g1
I125
tp2343
(lp2344
(S'15'
p2345
S'number'
p2346
S'71'
p2347
S'24'
p2348
tp2349
as(g411
I1
tp2350
(lp2351
s(g155
I14
tp2352
(lp2353
(S'begin'
p2354
S'begin'
p2355
S'38'
p2356
S'35'
p2357
tp2358
a(g236
I11
tp2359
a(S'end'
p2360
S'end'
p2361
S'42'
p2362
S'11'
p2363
tp2364
as(g279
I2
tp2365
(lp2366
(S'sintab'
p2367
S'token'
p2368
S'51'
p2369
g22
tp2370
a(S'sin1'
p2371
S'token'
p2372
S'51'
p2373
S'12'
p2374
tp2375
a(g78
g78
S'51'
p2376
S'13'
p2377
tp2378
a(g119
I4
tp2379
a(g83
g83
S'51'
p2380
S'37'
p2381
tp2382
a(g142
g142
S'51'
p2383
S'38'
p2384
tp2385
as(g1
I30
tp2386
(lp2387
(S'!'
p2388
g2388
S'27'
p2389
g27
tp2390
a(g1
I29
tp2391
as(g512
I3
tp2392
(lp2393
(g527
I3
tp2394
as(g38
I7
tp2395
(lp2396
(g34
I7
tp2397
as(g1
I96
tp2398
(lp2399
(S'gain2'
p2400
S'token'
p2401
S'56'
p2402
S'53'
p2403
tp2404
a(g331
I7
tp2405
as(g331
I5
tp2406
(lp2407
(g20
g20
S'55'
p2408
S'54'
p2409
tp2410
a(g1
I81
tp2411
a(g30
g30
S'55'
p2412
S'57'
p2413
tp2414
as(g16
I10
tp2415
(lp2416
(g20
g20
S'22'
p2417
g565
tp2418
a(g1
I21
tp2419
a(g25
g25
S'22'
p2420
g508
tp2421
a(g1
I22
tp2422
a(g30
g30
S'22'
p2423
S'10'
p2424
tp2425
as(g34
I3
tp2426
(lp2427
(g1
I64
tp2428
as(g67
I4
tp2429
(lp2430
(g70
g70
S'51'
p2431
S'27'
p2432
tp2433
a(S'out'
p2434
S'token'
p2435
S'51'
p2436
S'30'
p2437
tp2438
a(g78
g78
S'51'
p2439
S'31'
p2440
tp2441
a(g1
I56
tp2442
a(g83
g83
S'51'
p2443
S'36'
p2444
tp2445
as(g96
I6
tp2446
(lp2447
(S'input'
p2448
S'input'
p2449
S'10'
p2450
S'10'
p2451
tp2452
as(g1
I74
tp2453
(lp2454
(S'16'
p2455
S'number'
p2456
S'55'
p2457
S'25'
p2458
tp2459
as(g224
I5
tp2460
(lp2461
(g381
g381
S'54'
p2462
S'45'
p2463
tp2464
a(g38
I6
tp2465
a(g386
g386
S'54'
p2466
S'59'
p2467
tp2468
as(g414
I12
tp2469
(lp2470
(g134
I8
tp2471
as(g119
I9
tp2472
(lp2473
(g119
I8
tp2474
a(g123
g123
S'64'
p2475
g565
tp2476
a(g67
I9
tp2477
as(g104
I6
tp2478
(lp2479
(S'addr0'
p2480
S'token'
p2481
S'35'
p2482
S'17'
p2483
tp2484
as(g1
I61
tp2485
(lp2486
(S'16'
p2487
S'number'
p2488
S'54'
p2489
S'25'
p2490
tp2491
as(g411
I6
tp2492
(lp2493
(g414
I11
tp2494
a(g411
I5
tp2495
as(g155
I1
tp2496
(lp2497
(g104
I1
tp2498
a(S'<='
p2499
S'sm_eq'
p2500
S'28'
p2501
S'15'
p2502
tp2503
a(g1
I31
tp2504
a(g142
g142
S'28'
p2505
S'17'
p2506
tp2507
as(g1
I7
tp2508
(lp2509
(S'31'
p2510
S'number'
p2511
S'12'
p2512
S'15'
p2513
tp2514
as(g140
I11
tp2515
(lp2516
(S'sin0'
p2517
S'token'
p2518
S'21'
p2519
S'16'
p2520
tp2521
a(g123
g123
S'21'
p2522
S'17'
p2523
tp2524
a(g140
I10
tp2525
as(g1
I142
tp2526
(lp2527
(S'jump2'
p2528
S'token'
p2529
S'76'
p2530
S'17'
p2531
tp2532
a(g16
I23
tp2533
as(g1
I105
tp2534
(lp2535
(S'16'
p2536
S'number'
p2537
S'58'
p2538
S'37'
p2539
tp2540
as(g1
I144
tp2541
(lp2542
(g44
S'number'
p2543
S'77'
p2544
S'24'
p2545
tp2546
as(g16
I3
tp2547
(lp2548
(g20
g20
S'11'
p2549
S'12'
p2550
tp2551
a(g1
I5
tp2552
a(g25
g25
S'11'
p2553
S'15'
p2554
tp2555
a(g1
I6
tp2556
a(g30
g30
S'11'
p2557
S'17'
p2558
tp2559
as(g34
I8
tp2560
(lp2561
(g1
I71
tp2562
as(g38
I18
tp2563
(lp2564
(g34
I18
tp2565
as(g1
I115
tp2566
(lp2567
(g44
S'number'
p2568
S'65'
p2569
S'24'
p2570
tp2571
as(g224
I12
tp2572
(lp2573
(g381
g381
S'55'
p2574
S'44'
p2575
tp2576
a(g38
I16
tp2577
a(g386
g386
S'55'
p2578
S'66'
p2579
tp2580
as(g62
I5
tp2581
(lp2582
(g62
I4
tp2583
a(g123
g123
g27
g565
tp2584
a(g65
I5
tp2585
as(g1
I85
tp2586
(lp2587
(g224
I12
tp2588
as(g65
I7
tp2589
(lp2590
(g96
I7
tp2591
a(g16
I3
tp2592
a(S'pwdata'
p2593
S'token'
p2594
S'11'
p2595
S'24'
p2596
tp2597
as(g119
I16
tp2598
(lp2599
(g119
I15
tp2600
a(g123
g123
S'72'
p2601
g565
tp2602
a(g67
I16
tp2603
as(g104
I9
tp2604
(lp2605
(S'addr0'
p2606
S'token'
p2607
S'39'
p2608
S'17'
p2609
tp2610
as(g1
I38
tp2611
(lp2612
(S'start1'
p2613
S'token'
p2614
S'36'
p2615
S'27'
p2616
tp2617
as(g411
I15
tp2618
(lp2619
(g414
I2
tp2620
a(g411
I14
tp2621
as(g155
I24
tp2622
(lp2623
(g104
I15
tp2624
a(S'<='
p2625
S'sm_eq'
p2626
S'59'
p2627
S'31'
p2628
tp2629
a(g1
I108
tp2630
a(g142
g142
S'59'
p2631
S'44'
p2632
tp2633
as(g236
I10
tp2634
(lp2635
(g236
I9
tp2636
a(g155
I12
tp2637
as(g236
I15
tp2638
(lp2639
(g236
I5
tp2640
a(g155
I20
tp2641
as(g414
I9
tp2642
(lp2643
(g279
I1
tp2644
as(g1857
I1
tp2645
(lp2646
(g78
g78
g565
S'18'
p2647
tp2648
a(g62
I9
tp2649
a(g83
g83
S'14'
p2650
g433
tp2651
a(g142
g142
S'14'
p2652
g436
tp2653
as(g1
I18
tp2654
(lp2655
(g44
S'number'
p2656
S'19'
p2657
S'10'
p2658
tp2659
as(g16
I4
tp2660
(lp2661
(g20
g20
S'12'
p2662
S'13'
p2663
tp2664
a(g1
I7
tp2665
a(g25
g25
S'12'
p2666
S'16'
p2667
tp2668
a(g1
I8
tp2669
a(g30
g30
S'12'
p2670
S'18'
p2671
tp2672
as(g34
I17
tp2673
(lp2674
(g1
I90
tp2675
as(g38
I11
tp2676
(lp2677
(g34
I11
tp2678
as(g1
I116
tp2679
(lp2680
(S'prdata'
p2681
S'token'
p2682
S'65'
p2683
S'19'
p2684
tp2685
a(g16
I15
tp2686
as(g96
I1
tp2687
(lp2688
(S'input'
p2689
S'input'
p2690
g22
g27
tp2691
as(g1
I2
tp2692
(lp2693
(g44
S'number'
p2694
g101
S'15'
p2695
tp2696
as(g1
I94
tp2697
(lp2698
(S'16'
p2699
S'number'
p2700
S'56'
p2701
S'47'
p2702
tp2703
as(g414
I10
tp2704
(lp2705
(g279
I2
tp2706
as(g1
I47
tp2707
(lp2708
(S'addr2'
p2709
S'token'
p2710
S'41'
p2711
S'26'
p2712
tp2713
as(g155
I19
tp2714
(lp2715
(S'if'
p2716
S'if'
p2717
S'38'
p2718
S'19'
p2719
tp2720
a(g78
g78
S'38'
p2721
S'21'
p2722
tp2723
a(g1
I40
tp2724
a(g83
g83
S'38'
p2725
S'29'
p2726
tp2727
a(g155
I14
tp2728
a(S'else'
p2729
S'else'
p2730
S'42'
p2731
S'16'
p2732
tp2733
a(g155
I18
tp2734
as(g119
I5
tp2735
(lp2736
(g67
I5
tp2737
as(g1
I49
tp2738
(lp2739
(g1
I47
tp2740
a(g1179
g1179
S'41'
p2741
S'28'
p2742
tp2743
a(g1
I48
tp2744
as(g224
I15
tp2745
(lp2746
(g381
g381
S'56'
p2747
S'22'
p2748
tp2749
a(g38
I20
tp2750
a(g386
g386
S'56'
p2751
S'42'
p2752
tp2753
as(g1
I23
tp2754
(lp2755
(S'work'
p2756
S'token'
p2757
S'24'
p2758
S'17'
p2759
tp2760
as(g137
I5
tp2761
(lp2762
(S'wire'
p2763
S'wire'
p2764
S'21'
p2765
g257
tp2766
as(g1
I27
tp2767
(lp2768
(S'clk'
p2769
S'token'
p2770
S'26'
p2771
S'20'
p2772
tp2773
as(g1
I130
tp2774
(lp2775
(S'gain0'
p2776
S'token'
p2777
S'72'
p2778
S'17'
p2779
tp2780
a(g16
I19
tp2781
as(g62
I6
tp2782
(lp2783
(g62
I5
tp2784
a(g123
g123
S'10'
p2785
g565
tp2786
a(g65
I6
tp2787
as(g16
I23
tp2788
(lp2789
(g20
g20
S'76'
p2790
S'18'
p2791
tp2792
a(g1
I140
tp2793
a(g25
g25
S'76'
p2794
S'21'
p2795
tp2796
a(g1
I141
tp2797
a(g30
g30
S'76'
p2798
S'23'
p2799
tp2800
as(g34
I4
tp2801
(lp2802
(g1
I65
tp2803
as(g67
I11
tp2804
(lp2805
(g70
g70
S'66'
p2806
g22
tp2807
a(S'psel'
p2808
S'token'
p2809
S'66'
p2810
S'10'
p2811
tp2812
a(g78
g78
S'66'
p2813
S'11'
p2814
tp2815
a(g1
I117
tp2816
a(g83
g83
S'66'
p2817
S'16'
p2818
tp2819
as(g1
I71
tp2820
(lp2821
(S'gain0'
p2822
S'token'
p2823
S'54'
p2824
S'65'
p2825
tp2826
as(g119
I12
tp2827
(lp2828
(g119
I11
tp2829
a(g123
g123
S'67'
p2830
g565
tp2831
a(g67
I12
tp2832
as(g1
I58
tp2833
(lp2834
(S'sin2'
p2835
S'token'
p2836
S'52'
p2837
S'35'
p2838
tp2839
as(g411
I3
tp2840
(lp2841
(g414
I14
tp2842
a(g411
I2
tp2843
as(g155
I12
tp2844
(lp2845
(g104
I10
tp2846
a(S'<='
p2847
S'sm_eq'
p2848
S'40'
p2849
S'20'
p2850
tp2851
a(g1
I46
tp2852
a(g142
g142
S'40'
p2853
S'35'
p2854
tp2855
as(g236
I8
tp2856
(lp2857
(g236
I7
tp2858
a(g155
I9
tp2859
as(g1
I28
tp2860
(lp2861
(S'rst_n'
p2862
S'token'
p2863
S'26'
p2864
S'37'
p2865
tp2866
as(g140
I6
tp2867
(lp2868
(S'jump2'
p2869
S'token'
p2870
S'19'
p2871
S'29'
p2872
tp2873
as(g1
I139
tp2874
(lp2875
(S'jump1'
p2876
S'token'
p2877
S'75'
p2878
S'17'
p2879
tp2880
a(g16
I22
tp2881
as(g1
I102
tp2882
(lp2883
(S'15'
p2884
S'number'
p2885
S'58'
p2886
g508
tp2887
as(g331
I3
tp2888
(lp2889
(g20
g20
S'54'
p2890
S'54'
p2891
tp2892
a(g1
I68
tp2893
a(g30
g30
S'54'
p2894
S'57'
p2895
tp2896
as(g16
I8
tp2897
(lp2898
(g20
g20
S'19'
p2899
g22
tp2900
a(g1
I17
tp2901
a(g25
g25
S'19'
p2902
g27
tp2903
a(g1
I18
tp2904
a(g30
g30
S'19'
p2905
S'11'
p2906
tp2907
as(g34
I13
tp2908
(lp2909
(g1
I82
tp2910
as(g67
I2
tp2911
(lp2912
(g70
g70
S'50'
p2913
S'27'
p2914
tp2915
a(S'out'
p2916
S'token'
p2917
S'50'
p2918
S'30'
p2919
tp2920
a(g78
g78
S'50'
p2921
S'31'
p2922
tp2923
a(g1
I54
tp2924
a(g83
g83
S'50'
p2925
S'36'
p2926
tp2927
as(g1
I72
tp2928
(lp2929
(g224
I6
tp2930
as(g224
I11
tp2931
(lp2932
(g381
g381
S'55'
p2933
S'45'
p2934
tp2935
a(g38
I14
tp2936
a(g386
g386
S'55'
p2937
S'59'
p2938
tp2939
as(g1
I82
tp2940
(lp2941
(S'gain1'
p2942
S'token'
p2943
S'55'
p2944
S'53'
p2945
tp2946
a(g331
I5
tp2947
as(g414
I8
tp2948
(lp2949
(g146
I1
tp2950
as(g119
I23
tp2951
(lp2952
(g119
I22
tp2953
a(g123
g123
S'79'
p2954
g565
tp2955
a(g67
I23
tp2956
as(g104
I4
tp2957
(lp2958
(S'running'
p2959
S'token'
p2960
S'31'
p2961
S'15'
p2962
tp2963
as(g1
I35
tp2964
(lp2965
(S'work'
p2966
S'token'
p2967
S'33'
p2968
S'23'
p2969
tp2970
as(g411
I8
tp2971
(lp2972
(g414
I9
tp2973
a(g411
I7
tp2974
as(g155
I7
tp2975
(lp2976
(g104
I6
tp2977
a(S'<='
p2978
S'sm_eq'
p2979
S'35'
p2980
S'20'
p2981
tp2982
a(g1
I37
tp2983
a(g142
g142
S'35'
p2984
S'28'
p2985
tp2986
as(g236
I2
tp2987
(lp2988
(g236
I1
tp2989
a(g155
I2
tp2990
as(g140
I9
tp2991
(lp2992
(S'sin2'
p2993
S'token'
p2994
S'21'
p2995
S'26'
p2996
tp2997
as(g1
I140
tp2998
(lp2999
(S'10'
p3000
S'number'
p3001
S'76'
p3002
S'20'
p3003
tp3004
as(g414
I2
tp3005
(lp3006
(g134
I2
tp3007
as(g1
I111
tp3008
(lp3009
(g565
S'number'
p3010
S'64'
p3011
S'19'
p3012
tp3013
as(g1
I150
tp3014
(lp3015
(g44
S'number'
p3016
S'79'
p3017
S'24'
p3018
tp3019
as(g16
I1
tp3020
(lp3021
(g20
g20
g101
S'12'
p3022
tp3023
a(g1
I1
tp3024
a(g25
g25
g101
S'14'
p3025
tp3026
a(g1
I2
tp3027
a(g30
g30
g101
S'16'
p3028
tp3029
as(g34
I10
tp3030
(lp3031
(g1
I74
tp3032
a(g224
I7
tp3033
as(g38
I20
tp3034
(lp3035
(g38
I19
tp3036
a(g123
g123
S'56'
p3037
S'37'
p3038
tp3039
a(g34
I20
tp3040
as(g1
I113
tp3041
(lp3042
(S'paddr'
p3043
S'token'
p3044
S'64'
p3045
S'17'
p3046
tp3047
a(g16
I14
tp3048
as(g62
I3
tp3049
(lp3050
(g62
I2
tp3051
a(g123
g123
g101
g565
tp3052
a(g65
I3
tp3053
as(g67
I23
tp3054
(lp3055
(g70
g70
S'79'
p3056
g22
tp3057
a(S'start2'
p3058
S'token'
p3059
S'79'
p3060
S'12'
p3061
tp3062
a(g78
g78
S'79'
p3063
S'13'
p3064
tp3065
a(g1
I151
tp3066
a(g83
g83
S'79'
p3067
S'26'
p3068
tp3069
as(g1
I91
tp3070
(lp3071
(g224
I14
tp3072
as(g65
I1
tp3073
(lp3074
(g96
I1
tp3075
a(S'clk'
p3076
S'token'
p3077
g22
S'13'
p3078
tp3079
as(g104
I15
tp3080
(lp3081
(S'outmix'
p3082
S'token'
p3083
S'59'
p3084
S'28'
p3085
tp3086
as(g1
I36
tp3087
(lp3088
(S'start'
p3089
S'token'
p3090
S'34'
p3091
S'17'
p3092
tp3093
as(g236
I9
tp3094
(lp3095
(g155
I11
tp3096
as(g140
I16
tp3097
(lp3098
(S'total'
p3099
S'token'
p3100
S'54'
p3101
S'17'
p3102
tp3103
as(g414
I11
tp3104
(lp3105
(g279
I3
tp3106
as(g1
I9
tp3107
(lp3108
(S'15'
p3109
S'number'
p3110
S'13'
p3111
S'15'
p3112
tp3113
as(g1
I16
tp3114
(lp3115
(g44
S'number'
p3116
S'18'
p3117
S'10'
p3118
tp3119
as(g1
I123
tp3120
(lp3121
(S'pwdata'
p3122
S'token'
p3123
S'68'
p3124
S'19'
p3125
tp3126
a(g16
I17
tp3127
as(g34
I19
tp3128
(lp3129
(g1
I91
tp3130
as(g38
I13
tp3131
(lp3132
(g34
I13
tp3133
as(g1
I122
tp3134
(lp3135
(g44
S'number'
p3136
S'68'
p3137
S'24'
p3138
tp3139
as(g96
I3
tp3140
(lp3141
(S'input'
p3142
S'input'
p3143
g101
S'10'
p3144
tp3145
as(g67
I14
tp3146
(lp3147
(g70
g70
S'69'
p3148
g22
tp3149
a(S'pwrite'
p3150
S'token'
p3151
S'69'
p3152
S'12'
p3153
tp3154
a(g78
g78
S'69'
p3155
S'13'
p3156
tp3157
a(g1
I124
tp3158
a(g83
g83
S'69'
p3159
S'20'
p3160
tp3161
as(g1
I92
tp3162
(lp3163
(S'sin2'
p3164
S'token'
p3165
S'56'
p3166
S'41'
p3167
tp3168
as(g65
I8
tp3169
(lp3170
(g96
I8
tp3171
a(g16
I4
tp3172
a(S'prdata'
p3173
S'token'
p3174
S'12'
p3175
S'25'
p3176
tp3177
as(g1
I45
tp3178
(lp3179
(S'jump1'
p3180
S'token'
p3181
S'40'
p3182
S'34'
p3183
tp3184
as(g155
I17
tp3185
(lp3186
(g104
I14
tp3187
a(S'<='
p3188
S'sm_eq'
p3189
S'45'
p3190
S'19'
p3191
tp3192
a(g1
I52
tp3193
a(g142
g142
S'45'
p3194
S'21'
p3195
tp3196
as(g119
I3
tp3197
(lp3198
(g67
I3
tp3199
as(g1
I55
tp3200
(lp3201
(S'addr1'
p3202
S'token'
p3203
S'51'
p3204
S'24'
p3205
tp3206
as(g134
I6
tp3207
(lp3208
(g137
I6
tp3209
a(g16
I10
tp3210
a(g140
I14
tp3211
a(g142
g142
S'22'
p3212
S'29'
p3213
tp3214
as(g1
I133
tp3215
(lp3216
(S'gain1'
p3217
S'token'
p3218
S'73'
p3219
S'17'
p3220
tp3221
a(g16
I20
tp3222
as(g155
I11
tp3223
(lp3224
(g104
I9
tp3225
a(S'<='
p3226
S'sm_eq'
p3227
S'39'
p3228
S'20'
p3229
tp3230
a(g1
I43
tp3231
a(g142
g142
S'39'
p3232
S'35'
p3233
tp3234
as(g1
I25
tp3235
(lp3236
(g2388
g2388
S'24'
p3237
S'22'
p3238
tp3239
a(g1
I24
tp3240
as(g1
I128
tp3241
(lp3242
(S'15'
p3243
S'number'
p3244
S'72'
p3245
S'20'
p3246
tp3247
as(g34
I24
tp3248
(lp3249
(g1
I98
tp3250
as(g38
I2
tp3251
(lp3252
(g34
I2
tp3253
as(g1
I99
tp3254
(lp3255
(g224
I18
tp3256
as(g16
I21
tp3257
(lp3258
(g20
g20
S'74'
p3259
S'18'
p3260
tp3261
a(g1
I134
tp3262
a(g25
g25
S'74'
p3263
S'21'
p3264
tp3265
a(g1
I135
tp3266
a(g30
g30
S'74'
p3267
S'23'
p3268
tp3269
as(g34
I6
tp3270
(lp3271
(g1
I67
tp3272
a(g224
I4
tp3273
as(g67
I9
tp3274
(lp3275
(g70
g70
S'64'
p3276
g22
tp3277
a(S'paddr'
p3278
S'token'
p3279
S'64'
p3280
S'11'
p3281
tp3282
a(g78
g78
S'64'
p3283
S'12'
p3284
tp3285
a(g1
I113
tp3286
a(g83
g83
S'64'
p3287
S'23'
p3288
tp3289
as(g38
I24
tp3290
(lp3291
(g38
I23
tp3292
a(g123
g123
S'56'
p3293
S'60'
p3294
tp3295
a(g34
I24
tp3296
as(g1
I69
tp3297
(lp3298
(S'gain0'
p3299
S'token'
p3300
S'54'
p3301
S'53'
p3302
tp3303
a(g331
I3
tp3304
as(g224
I6
tp3305
(lp3306
(g381
g381
S'54'
p3307
S'44'
p3308
tp3309
a(g38
I8
tp3310
a(g386
g386
S'54'
p3311
S'66'
p3312
tp3313
as(g119
I10
tp3314
(lp3315
(g119
I9
tp3316
a(g123
g123
S'65'
p3317
g565
tp3318
a(g67
I10
tp3319
as(g104
I3
tp3320
(lp3321
(S'addr2'
p3322
S'token'
p3323
S'30'
p3324
S'13'
p3325
tp3326
as(g1
I56
tp3327
(lp3328
(S'sin1'
p3329
S'token'
p3330
S'51'
p3331
S'35'
p3332
tp3333
as(g411
I5
tp3334
(lp3335
(g414
I12
tp3336
a(g411
I4
tp3337
as(g155
I2
tp3338
(lp3339
(g104
I2
tp3340
a(S'<='
p3341
S'sm_eq'
p3342
S'29'
p3343
S'15'
p3344
tp3345
a(g1
I32
tp3346
a(g142
g142
S'29'
p3347
S'17'
p3348
tp3349
as(g236
I5
tp3350
(lp3351
(g155
I6
tp3352
as(g140
I4
tp3353
(lp3354
(S'start1'
p3355
S'token'
p3356
S'18'
p3357
S'25'
p3358
tp3359
a(g123
g123
S'18'
p3360
S'26'
p3361
tp3362
a(g140
I3
tp3363
as(g1
I137
tp3364
(lp3365
(S'10'
p3366
S'number'
p3367
S'75'
p3368
S'20'
p3369
tp3370
as(g1
I11
tp3371
(lp3372
(S'15'
p3373
S'number'
p3374
S'16'
p3375
g508
tp3376
as(g1
I100
tp3377
(lp3378
(g1
I93
tp3379
a(g539
g539
S'56'
p3380
S'43'
p3381
tp3382
a(g1
I99
tp3383
as(g331
I1
tp3384
(lp3385
(g20
g20
S'17'
p3386
S'20'
p3387
tp3388
a(g1
I13
tp3389
a(g30
g30
S'17'
p3390
S'22'
p3391
tp3392
as(g1
I147
tp3393
(lp3394
(g44
S'number'
p3395
S'78'
p3396
S'24'
p3397
tp3398
as(g16
I14
tp3399
(lp3400
(g20
g20
S'64'
p3401
S'18'
p3402
tp3403
a(g1
I111
tp3404
a(g25
g25
S'64'
p3405
S'20'
p3406
tp3407
a(g1
I112
tp3408
a(g30
g30
S'64'
p3409
S'22'
p3410
tp3411
as(g34
I15
tp3412
(lp3413
(g1
I83
tp3414
as(g38
I17
tp3415
(lp3416
(g34
I17
tp3417
as(g1
I78
tp3418
(lp3419
(S'sin1'
p3420
S'token'
p3421
S'55'
p3422
S'41'
p3423
tp3424
as(g224
I9
tp3425
(lp3426
(g381
g381
S'55'
p3427
S'22'
p3428
tp3429
a(g38
I12
tp3430
a(g386
g386
S'55'
p3431
S'42'
p3432
tp3433
as(g1
I80
tp3434
(lp3435
(S'16'
p3436
S'number'
p3437
S'55'
p3438
S'47'
p3439
tp3440
as(g65
I4
tp3441
(lp3442
(g96
I4
tp3443
a(g16
I2
tp3444
a(S'psize'
p3445
S'token'
p3446
g508
S'22'
p3447
tp3448
as(g119
I21
tp3449
(lp3450
(g119
I20
tp3451
a(g123
g123
S'77'
p3452
g565
tp3453
a(g67
I21
tp3454
as(g104
I10
tp3455
(lp3456
(S'addr1'
p3457
S'token'
p3458
S'40'
p3459
S'17'
p3460
tp3461
as(g1
I33
tp3462
(lp3463
(g44
S'number'
p3464
S'30'
p3465
S'16'
p3466
tp3467
as(g411
I10
tp3468
(lp3469
(g414
I7
tp3470
a(g411
I9
tp3471
as(g155
I5
tp3472
(lp3473
(S'begin'
p3474
S'begin'
p3475
S'27'
p3476
S'21'
p3477
tp3478
a(g236
I4
tp3479
a(S'end'
p3480
S'end'
p3481
S'32'
p3482
g101
tp3483
as(g236
I12
tp3484
(lp3485
(g155
I15
tp3486
as(g140
I15
tp3487
(lp3488
(S'start'
p3489
S'token'
p3490
S'24'
p3491
S'10'
p3492
tp3493
as(g411
I16
tp3494
(lp3495
(g414
I1
tp3496
a(g411
I15
tp3497
as(g1
I135
tp3498
(lp3499
(g44
S'number'
p3500
S'74'
p3501
S'22'
p3502
tp3503
as(g414
I4
tp3504
(lp3505
(g134
I4
tp3506
as.